c__builtin__
set
p1
((lp2
VSci-Fi
p3
aVCrime
p4
aVRomance
p5
aVAnimation
p6
aVMusic
p7
aVComedy
p8
aVWar
p9
aVHorror
p10
aVWestern
p11
aVNews
p12
aVThriller
p13
aVAdventure
p14
aVMystery
p15
aVShort
p16
aVDrama
p17
aVAction
p18
aVDocumentary
p19
aVMusical
p20
aVHistory
p21
aVFamily
p22
aVFantasy
p23
aVSport
p24
aVBiography
p25
atRp26
.