(dp1
Vflashback
p2
I218
sVcigarette-smoking
p3
I226
sVdeath
p4
I337
sVcult-film
p5
I229
sVlove
p6
I291
sVmarriage
p7
I216
sVsex
p8
I201
sVfather-daughter-relationship
p9
I252
sVblockbuster
p10
I203
sVfemale-nudity
p11
I233
sVtitle-spoken-by-character
p12
I232
sVcharacter-name-in-title
p13
I265
sVblood
p14
I259
sVmother-daughter-relationship
p15
I211
sVindependent-film
p16
I352
sVmother-son-relationship
p17
I292
sVmurder
p18
I317
sVfriendship
p19
I285
sVhusband-wife-relationship
p20
I338
sVfamily-relationships
p21
I270
sVfather-son-relationship
p22
I305
sVsinging
p23
I201
sVbased-on-novel
p24
I259
sVviolence
p25
I220
sVdancing
p26
I220
s.